target datalayout = "e-m:e-p270:32:32-p271:32:32-p272:64:64-i64:64-i128:128-f80:128-n8:16:32:64-S128"
target triple = "x86_64-pc-linux-gnu"

%struct.ddTableDeal = type { [4 x [4 x i32]] }
%struct.ddTableDeals = type { i32, [200 x %struct.ddTableDeal] }
%struct.ddTableDealsPBN = type { i32, [200 x %struct.ddTableDealPBN] }
%struct.ddTableDealPBN = type { [80 x i8] }

; Function Attrs: mustprogress uwtable
define i32 @CalcAllTablesPBN(ptr noundef %0, i32 noundef %1, ptr noundef %2, ptr noundef %3, ptr noundef %4) #4 {
  %6 = alloca i32, align 4
  %7 = alloca ptr, align 8
  %8 = alloca i32, align 4
  %9 = alloca ptr, align 8
  %10 = alloca ptr, align 8
  %11 = alloca ptr, align 8
  %12 = alloca %struct.ddTableDeals, align 4
  %13 = alloca i32, align 4
  %14 = alloca i32, align 4
  store ptr %0, ptr %7, align 8
  store i32 %1, ptr %8, align 4
  store ptr %2, ptr %9, align 8
  store ptr %3, ptr %10, align 8
  store ptr %4, ptr %11, align 8
  store i32 0, ptr %13, align 4
  br label %15

15:                                               ; preds = %39, %5
  %16 = load i32, ptr %13, align 4
  %17 = load ptr, ptr %7, align 8
  %18 = getelementptr inbounds nuw %struct.ddTableDealsPBN, ptr %17, i32 0, i32 0
  %19 = load i32, ptr %18, align 4
  %20 = icmp slt i32 %16, %19
  br i1 %20, label %21, label %42

21:                                               ; preds = %15
  %22 = load ptr, ptr %7, align 8
  %23 = getelementptr inbounds nuw %struct.ddTableDealsPBN, ptr %22, i32 0, i32 1
  %24 = load i32, ptr %13, align 4
  %25 = sext i32 %24 to i64
  %26 = getelementptr inbounds [200 x %struct.ddTableDealPBN], ptr %23, i64 0, i64 %25
  %27 = getelementptr inbounds nuw %struct.ddTableDealPBN, ptr %26, i32 0, i32 0
  %28 = getelementptr inbounds [80 x i8], ptr %27, i64 0, i64 0
  %29 = getelementptr inbounds nuw %struct.ddTableDeals, ptr %12, i32 0, i32 1
  %30 = load i32, ptr %13, align 4
  %31 = sext i32 %30 to i64
  %32 = getelementptr inbounds [200 x %struct.ddTableDeal], ptr %29, i64 0, i64 %31
  %33 = getelementptr inbounds nuw %struct.ddTableDeal, ptr %32, i32 0, i32 0
  %34 = getelementptr inbounds [4 x [4 x i32]], ptr %33, i64 0, i64 0
  %35 = call noundef i32 @_Z14ConvertFromPBNPKcPA4_j(ptr noundef %28, ptr noundef %34)
  %36 = icmp ne i32 %35, 1
  br i1 %36, label %37, label %38

37:                                               ; preds = %21
  store i32 -99, ptr %6, align 4
  br label %53

38:                                               ; preds = %21
  br label %39

39:                                               ; preds = %38
  %40 = load i32, ptr %13, align 4
  %41 = add nsw i32 %40, 1
  store i32 %41, ptr %13, align 4
  br label %15, !llvm.loop !27

42:                                               ; preds = %15
  %43 = load ptr, ptr %7, align 8
  %44 = getelementptr inbounds nuw %struct.ddTableDealsPBN, ptr %43, i32 0, i32 0
  %45 = load i32, ptr %44, align 4
  %46 = getelementptr inbounds nuw %struct.ddTableDeals, ptr %12, i32 0, i32 0
  store i32 %45, ptr %46, align 4
  %47 = load i32, ptr %8, align 4
  %48 = load ptr, ptr %9, align 8
  %49 = load ptr, ptr %10, align 8
  %50 = load ptr, ptr %11, align 8
  %51 = call i32 @CalcAllTables(ptr noundef %12, i32 noundef %47, ptr noundef %48, ptr noundef %49, ptr noundef %50)
  store i32 %51, ptr %14, align 4
  %52 = load i32, ptr %14, align 4
  store i32 %52, ptr %6, align 4
  br label %53

53:                                               ; preds = %42, %37
  %54 = load i32, ptr %6, align 4
  ret i32 %54
}