; Function Attrs: mustprogress uwtable
define i32 @CalcAllTablesPBN(ptr noundef %0, i32 noundef %1, ptr noundef readonly captures(none) %2, ptr noundef %3, ptr noundef %4) local_unnamed_addr #3 {
  %6 = alloca %struct.ddTableDeals, align 4
  %7 = load i32, ptr %0, align 4
  %8 = icmp sgt i32 %7, 0
  br i1 %8, label %.lr.ph, label %._crit_edge

.lr.ph:                                           ; preds = %5
  %9 = getelementptr inbounds nuw i8, ptr %0, i64 4
  %10 = getelementptr inbounds nuw i8, ptr %6, i64 4
  br label %15

11:                                               ; preds = %15
  %indvars.iv.next = add nuw nsw i64 %indvars.iv, 1
  %12 = load i32, ptr %0, align 4
  %13 = sext i32 %12 to i64
  %14 = icmp slt i64 %indvars.iv.next, %13
  br i1 %14, label %15, label %._crit_edge, !llvm.loop !23

15:                                               ; preds = %.lr.ph, %11
  %indvars.iv = phi i64 [ 0, %.lr.ph ], [ %indvars.iv.next, %11 ]
  %16 = getelementptr inbounds nuw [200 x %struct.ddTableDealPBN], ptr %9, i64 0, i64 %indvars.iv
  %17 = getelementptr inbounds nuw [200 x %struct.ddTableDeal], ptr %10, i64 0, i64 %indvars.iv
  %18 = call noundef i32 @_Z14ConvertFromPBNPKcPA4_j(ptr noundef nonnull %16, ptr noundef nonnull %17)
  %.not = icmp eq i32 %18, 1
  br i1 %.not, label %11, label %.loopexit

._crit_edge:                                      ; preds = %11, %5
  %.lcssa = phi i32 [ %7, %5 ], [ %12, %11 ]
  store i32 %.lcssa, ptr %6, align 4
  %19 = call i32 @CalcAllTables(ptr noundef nonnull %6, i32 noundef %1, ptr noundef %2, ptr noundef %3, ptr noundef %4)
  br label %.loopexit

.loopexit:                                        ; preds = %15, %._crit_edge
  %.0 = phi i32 [ %19, %._crit_edge ], [ -99, %15 ]
  ret i32 %.0
}